target datalayout = "e-m:e-p270:32:32-p271:32:32-p272:64:64-i64:64-i128:128-f80:128-n8:16:32:64-S128"
target triple = "x86_64-pc-linux-gnu"

%struct.anon = type { double, double }
%struct._generic_N_Vector = type { ptr, ptr, ptr }
%struct._N_VectorContent_Serial = type { i64, i32, ptr }

; Function Attrs: nounwind uwtable
define internal i32 @fB2(double noundef %0, ptr noundef %1, ptr noundef %2, ptr noundef %3, ptr noundef %4, ptr noundef %5) #0 {
  %7 = alloca double, align 8
  %8 = alloca ptr, align 8
  %9 = alloca ptr, align 8
  %10 = alloca ptr, align 8
  %11 = alloca ptr, align 8
  %12 = alloca ptr, align 8
  %13 = alloca ptr, align 8
  %14 = alloca double, align 8
  %15 = alloca double, align 8
  %16 = alloca double, align 8
  %17 = alloca double, align 8
  %18 = alloca double, align 8
  %19 = alloca double, align 8
  %20 = alloca double, align 8
  %21 = alloca double, align 8
  %22 = alloca double, align 8
  %23 = alloca double, align 8
  %24 = alloca double, align 8
  %25 = alloca double, align 8
  %26 = alloca double, align 8
  %27 = alloca double, align 8
  store double %0, ptr %7, align 8, !tbaa !24
  store ptr %1, ptr %8, align 8, !tbaa !12
  store ptr %2, ptr %9, align 8, !tbaa !27
  store ptr %3, ptr %10, align 8, !tbaa !12
  store ptr %4, ptr %11, align 8, !tbaa !12
  store ptr %5, ptr %12, align 8, !tbaa !11
  call void @llvm.lifetime.start.p0(i64 8, ptr %13) #6
  call void @llvm.lifetime.start.p0(i64 8, ptr %14) #6
  call void @llvm.lifetime.start.p0(i64 8, ptr %15) #6
  call void @llvm.lifetime.start.p0(i64 8, ptr %16) #6
  call void @llvm.lifetime.start.p0(i64 8, ptr %17) #6
  call void @llvm.lifetime.start.p0(i64 8, ptr %18) #6
  call void @llvm.lifetime.start.p0(i64 8, ptr %19) #6
  call void @llvm.lifetime.start.p0(i64 8, ptr %20) #6
  call void @llvm.lifetime.start.p0(i64 8, ptr %21) #6
  call void @llvm.lifetime.start.p0(i64 8, ptr %22) #6
  call void @llvm.lifetime.start.p0(i64 8, ptr %23) #6
  call void @llvm.lifetime.start.p0(i64 8, ptr %24) #6
  call void @llvm.lifetime.start.p0(i64 8, ptr %25) #6
  call void @llvm.lifetime.start.p0(i64 8, ptr %26) #6
  call void @llvm.lifetime.start.p0(i64 8, ptr %27) #6
  %28 = load ptr, ptr %12, align 8, !tbaa !11
  store ptr %28, ptr %13, align 8, !tbaa !11
  %29 = load ptr, ptr %13, align 8, !tbaa !11
  %30 = getelementptr inbounds nuw %struct.anon, ptr %29, i32 0, i32 0
  %31 = load double, ptr %30, align 8, !tbaa !18
  store double %31, ptr %14, align 8, !tbaa !24
  %32 = load ptr, ptr %13, align 8, !tbaa !11
  %33 = getelementptr inbounds nuw %struct.anon, ptr %32, i32 0, i32 1
  %34 = load double, ptr %33, align 8, !tbaa !21
  store double %34, ptr %15, align 8, !tbaa !24
  %35 = load ptr, ptr %8, align 8, !tbaa !12
  %36 = getelementptr inbounds nuw %struct._generic_N_Vector, ptr %35, i32 0, i32 0
  %37 = load ptr, ptr %36, align 8, !tbaa !29
  %38 = getelementptr inbounds nuw %struct._N_VectorContent_Serial, ptr %37, i32 0, i32 2
  %39 = load ptr, ptr %38, align 8, !tbaa !32
  %40 = getelementptr inbounds double, ptr %39, i64 0
  %41 = load double, ptr %40, align 8, !tbaa !24
  store double %41, ptr %16, align 8, !tbaa !24
  %42 = load ptr, ptr %8, align 8, !tbaa !12
  %43 = getelementptr inbounds nuw %struct._generic_N_Vector, ptr %42, i32 0, i32 0
  %44 = load ptr, ptr %43, align 8, !tbaa !29
  %45 = getelementptr inbounds nuw %struct._N_VectorContent_Serial, ptr %44, i32 0, i32 2
  %46 = load ptr, ptr %45, align 8, !tbaa !32
  %47 = getelementptr inbounds double, ptr %46, i64 1
  %48 = load double, ptr %47, align 8, !tbaa !24
  store double %48, ptr %17, align 8, !tbaa !24
  %49 = load ptr, ptr %8, align 8, !tbaa !12
  %50 = getelementptr inbounds nuw %struct._generic_N_Vector, ptr %49, i32 0, i32 0
  %51 = load ptr, ptr %50, align 8, !tbaa !29
  %52 = getelementptr inbounds nuw %struct._N_VectorContent_Serial, ptr %51, i32 0, i32 2
  %53 = load ptr, ptr %52, align 8, !tbaa !32
  %54 = getelementptr inbounds double, ptr %53, i64 2
  %55 = load double, ptr %54, align 8, !tbaa !24
  store double %55, ptr %18, align 8, !tbaa !24
  %56 = load ptr, ptr %9, align 8, !tbaa !27
  %57 = getelementptr inbounds ptr, ptr %56, i64 1
  %58 = load ptr, ptr %57, align 8, !tbaa !12
  %59 = getelementptr inbounds nuw %struct._generic_N_Vector, ptr %58, i32 0, i32 0
  %60 = load ptr, ptr %59, align 8, !tbaa !29
  %61 = getelementptr inbounds nuw %struct._N_VectorContent_Serial, ptr %60, i32 0, i32 2
  %62 = load ptr, ptr %61, align 8, !tbaa !32
  %63 = getelementptr inbounds double, ptr %62, i64 0
  %64 = load double, ptr %63, align 8, !tbaa !24
  store double %64, ptr %19, align 8, !tbaa !24
  %65 = load ptr, ptr %9, align 8, !tbaa !27
  %66 = getelementptr inbounds ptr, ptr %65, i64 1
  %67 = load ptr, ptr %66, align 8, !tbaa !12
  %68 = getelementptr inbounds nuw %struct._generic_N_Vector, ptr %67, i32 0, i32 0
  %69 = load ptr, ptr %68, align 8, !tbaa !29
  %70 = getelementptr inbounds nuw %struct._N_VectorContent_Serial, ptr %69, i32 0, i32 2
  %71 = load ptr, ptr %70, align 8, !tbaa !32
  %72 = getelementptr inbounds double, ptr %71, i64 1
  %73 = load double, ptr %72, align 8, !tbaa !24
  store double %73, ptr %20, align 8, !tbaa !24
  %74 = load ptr, ptr %9, align 8, !tbaa !27
  %75 = getelementptr inbounds ptr, ptr %74, i64 1
  %76 = load ptr, ptr %75, align 8, !tbaa !12
  %77 = getelementptr inbounds nuw %struct._generic_N_Vector, ptr %76, i32 0, i32 0
  %78 = load ptr, ptr %77, align 8, !tbaa !29
  %79 = getelementptr inbounds nuw %struct._N_VectorContent_Serial, ptr %78, i32 0, i32 2
  %80 = load ptr, ptr %79, align 8, !tbaa !32
  %81 = getelementptr inbounds double, ptr %80, i64 2
  %82 = load double, ptr %81, align 8, !tbaa !24
  store double %82, ptr %21, align 8, !tbaa !24
  %83 = load ptr, ptr %10, align 8, !tbaa !12
  %84 = getelementptr inbounds nuw %struct._generic_N_Vector, ptr %83, i32 0, i32 0
  %85 = load ptr, ptr %84, align 8, !tbaa !29
  %86 = getelementptr inbounds nuw %struct._N_VectorContent_Serial, ptr %85, i32 0, i32 2
  %87 = load ptr, ptr %86, align 8, !tbaa !32
  %88 = getelementptr inbounds double, ptr %87, i64 0
  %89 = load double, ptr %88, align 8, !tbaa !24
  store double %89, ptr %22, align 8, !tbaa !24
  %90 = load ptr, ptr %10, align 8, !tbaa !12
  %91 = getelementptr inbounds nuw %struct._generic_N_Vector, ptr %90, i32 0, i32 0
  %92 = load ptr, ptr %91, align 8, !tbaa !29
  %93 = getelementptr inbounds nuw %struct._N_VectorContent_Serial, ptr %92, i32 0, i32 2
  %94 = load ptr, ptr %93, align 8, !tbaa !32
  %95 = getelementptr inbounds double, ptr %94, i64 1
  %96 = load double, ptr %95, align 8, !tbaa !24
  store double %96, ptr %23, align 8, !tbaa !24
  %97 = load ptr, ptr %10, align 8, !tbaa !12
  %98 = getelementptr inbounds nuw %struct._generic_N_Vector, ptr %97, i32 0, i32 0
  %99 = load ptr, ptr %98, align 8, !tbaa !29
  %100 = getelementptr inbounds nuw %struct._N_VectorContent_Serial, ptr %99, i32 0, i32 2
  %101 = load ptr, ptr %100, align 8, !tbaa !32
  %102 = getelementptr inbounds double, ptr %101, i64 2
  %103 = load double, ptr %102, align 8, !tbaa !24
  store double %103, ptr %24, align 8, !tbaa !24
  %104 = load ptr, ptr %10, align 8, !tbaa !12
  %105 = getelementptr inbounds nuw %struct._generic_N_Vector, ptr %104, i32 0, i32 0
  %106 = load ptr, ptr %105, align 8, !tbaa !29
  %107 = getelementptr inbounds nuw %struct._N_VectorContent_Serial, ptr %106, i32 0, i32 2
  %108 = load ptr, ptr %107, align 8, !tbaa !32
  %109 = getelementptr inbounds double, ptr %108, i64 3
  %110 = load double, ptr %109, align 8, !tbaa !24
  store double %110, ptr %25, align 8, !tbaa !24
  %111 = load ptr, ptr %10, align 8, !tbaa !12
  %112 = getelementptr inbounds nuw %struct._generic_N_Vector, ptr %111, i32 0, i32 0
  %113 = load ptr, ptr %112, align 8, !tbaa !29
  %114 = getelementptr inbounds nuw %struct._N_VectorContent_Serial, ptr %113, i32 0, i32 2
  %115 = load ptr, ptr %114, align 8, !tbaa !32
  %116 = getelementptr inbounds double, ptr %115, i64 4
  %117 = load double, ptr %116, align 8, !tbaa !24
  store double %117, ptr %26, align 8, !tbaa !24
  %118 = load ptr, ptr %10, align 8, !tbaa !12
  %119 = getelementptr inbounds nuw %struct._generic_N_Vector, ptr %118, i32 0, i32 0
  %120 = load ptr, ptr %119, align 8, !tbaa !29
  %121 = getelementptr inbounds nuw %struct._N_VectorContent_Serial, ptr %120, i32 0, i32 2
  %122 = load ptr, ptr %121, align 8, !tbaa !32
  %123 = getelementptr inbounds double, ptr %122, i64 5
  %124 = load double, ptr %123, align 8, !tbaa !24
  store double %124, ptr %27, align 8, !tbaa !24
  %125 = load double, ptr %14, align 8, !tbaa !24
  %126 = fmul double 2.000000e+00, %125
  %127 = load double, ptr %16, align 8, !tbaa !24
  %128 = fmul double %126, %127
  %129 = load double, ptr %22, align 8, !tbaa !24
  %130 = load double, ptr %16, align 8, !tbaa !24
  %131 = fneg double %130
  %132 = call double @llvm.fmuladd.f64(double %128, double %129, double %131)
  %133 = load ptr, ptr %11, align 8, !tbaa !12
  %134 = getelementptr inbounds nuw %struct._generic_N_Vector, ptr %133, i32 0, i32 0
  %135 = load ptr, ptr %134, align 8, !tbaa !29
  %136 = getelementptr inbounds nuw %struct._N_VectorContent_Serial, ptr %135, i32 0, i32 2
  %137 = load ptr, ptr %136, align 8, !tbaa !32
  %138 = getelementptr inbounds double, ptr %137, i64 0
  store double %132, ptr %138, align 8, !tbaa !24
  %139 = load double, ptr %23, align 8, !tbaa !24
  %140 = load double, ptr %15, align 8, !tbaa !24
  %141 = load double, ptr %15, align 8, !tbaa !24
  %142 = fmul double %140, %141
  %143 = load double, ptr %18, align 8, !tbaa !24
  %144 = fmul double %142, %143
  %145 = load double, ptr %24, align 8, !tbaa !24
  %146 = call double @llvm.fmuladd.f64(double %144, double %145, double %139)
  %147 = load double, ptr %17, align 8, !tbaa !24
  %148 = fsub double %146, %147
  %149 = load ptr, ptr %11, align 8, !tbaa !12
  %150 = getelementptr inbounds nuw %struct._generic_N_Vector, ptr %149, i32 0, i32 0
  %151 = load ptr, ptr %150, align 8, !tbaa !29
  %152 = getelementptr inbounds nuw %struct._N_VectorContent_Serial, ptr %151, i32 0, i32 2
  %153 = load ptr, ptr %152, align 8, !tbaa !32
  %154 = getelementptr inbounds double, ptr %153, i64 1
  store double %148, ptr %154, align 8, !tbaa !24
  %155 = load double, ptr %22, align 8, !tbaa !24
  %156 = load double, ptr %15, align 8, !tbaa !24
  %157 = load double, ptr %15, align 8, !tbaa !24
  %158 = fmul double %156, %157
  %159 = load double, ptr %17, align 8, !tbaa !24
  %160 = fmul double %158, %159
  %161 = load double, ptr %24, align 8, !tbaa !24
  %162 = call double @llvm.fmuladd.f64(double %160, double %161, double %155)
  %163 = load double, ptr %18, align 8, !tbaa !24
  %164 = fsub double %162, %163
  %165 = load ptr, ptr %11, align 8, !tbaa !12
  %166 = getelementptr inbounds nuw %struct._generic_N_Vector, ptr %165, i32 0, i32 0
  %167 = load ptr, ptr %166, align 8, !tbaa !29
  %168 = getelementptr inbounds nuw %struct._N_VectorContent_Serial, ptr %167, i32 0, i32 2
  %169 = load ptr, ptr %168, align 8, !tbaa !32
  %170 = getelementptr inbounds double, ptr %169, i64 2
  store double %164, ptr %170, align 8, !tbaa !24
  %171 = load double, ptr %14, align 8, !tbaa !24
  %172 = fmul double 2.000000e+00, %171
  %173 = load double, ptr %16, align 8, !tbaa !24
  %174 = fmul double %172, %173
  %175 = load double, ptr %25, align 8, !tbaa !24
  %176 = load double, ptr %22, align 8, !tbaa !24
  %177 = fmul double %176, 2.000000e+00
  %178 = load double, ptr %14, align 8, !tbaa !24
  %179 = fmul double %177, %178
  %180 = load double, ptr %19, align 8, !tbaa !24
  %181 = fmul double %179, %180
  %182 = call double @llvm.fmuladd.f64(double %174, double %175, double %181)
  %183 = load double, ptr %19, align 8, !tbaa !24
  %184 = fsub double %182, %183
  %185 = load ptr, ptr %11, align 8, !tbaa !12
  %186 = getelementptr inbounds nuw %struct._generic_N_Vector, ptr %185, i32 0, i32 0
  %187 = load ptr, ptr %186, align 8, !tbaa !29
  %188 = getelementptr inbounds nuw %struct._N_VectorContent_Serial, ptr %187, i32 0, i32 2
  %189 = load ptr, ptr %188, align 8, !tbaa !32
  %190 = getelementptr inbounds double, ptr %189, i64 3
  store double %184, ptr %190, align 8, !tbaa !24
  %191 = load double, ptr %26, align 8, !tbaa !24
  %192 = load double, ptr %15, align 8, !tbaa !24
  %193 = load double, ptr %15, align 8, !tbaa !24
  %194 = fmul double %192, %193
  %195 = load double, ptr %18, align 8, !tbaa !24
  %196 = fmul double %194, %195
  %197 = load double, ptr %27, align 8, !tbaa !24
  %198 = call double @llvm.fmuladd.f64(double %196, double %197, double %191)
  %199 = load double, ptr %24, align 8, !tbaa !24
  %200 = load double, ptr %15, align 8, !tbaa !24
  %201 = fmul double 2.000000e+00, %200
  %202 = load double, ptr %18, align 8, !tbaa !24
  %203 = load double, ptr %15, align 8, !tbaa !24
  %204 = load double, ptr %15, align 8, !tbaa !24
  %205 = fmul double %203, %204
  %206 = load double, ptr %21, align 8, !tbaa !24
  %207 = fmul double %205, %206
  %208 = call double @llvm.fmuladd.f64(double %201, double %202, double %207)
  %209 = call double @llvm.fmuladd.f64(double %199, double %208, double %198)
  %210 = load double, ptr %20, align 8, !tbaa !24
  %211 = fsub double %209, %210
  %212 = load ptr, ptr %11, align 8, !tbaa !12
  %213 = getelementptr inbounds nuw %struct._generic_N_Vector, ptr %212, i32 0, i32 0
  %214 = load ptr, ptr %213, align 8, !tbaa !29
  %215 = getelementptr inbounds nuw %struct._N_VectorContent_Serial, ptr %214, i32 0, i32 2
  %216 = load ptr, ptr %215, align 8, !tbaa !32
  %217 = getelementptr inbounds double, ptr %216, i64 4
  store double %211, ptr %217, align 8, !tbaa !24
  %218 = load double, ptr %25, align 8, !tbaa !24
  %219 = load double, ptr %15, align 8, !tbaa !24
  %220 = load double, ptr %15, align 8, !tbaa !24
  %221 = fmul double %219, %220
  %222 = load double, ptr %17, align 8, !tbaa !24
  %223 = fmul double %221, %222
  %224 = load double, ptr %27, align 8, !tbaa !24
  %225 = call double @llvm.fmuladd.f64(double %223, double %224, double %218)
  %226 = load double, ptr %24, align 8, !tbaa !24
  %227 = load double, ptr %15, align 8, !tbaa !24
  %228 = fmul double 2.000000e+00, %227
  %229 = load double, ptr %17, align 8, !tbaa !24
  %230 = load double, ptr %15, align 8, !tbaa !24
  %231 = load double, ptr %15, align 8, !tbaa !24
  %232 = fmul double %230, %231
  %233 = load double, ptr %20, align 8, !tbaa !24
  %234 = fmul double %232, %233
  %235 = call double @llvm.fmuladd.f64(double %228, double %229, double %234)
  %236 = call double @llvm.fmuladd.f64(double %226, double %235, double %225)
  %237 = load double, ptr %21, align 8, !tbaa !24
  %238 = fsub double %236, %237
  %239 = load ptr, ptr %11, align 8, !tbaa !12
  %240 = getelementptr inbounds nuw %struct._generic_N_Vector, ptr %239, i32 0, i32 0
  %241 = load ptr, ptr %240, align 8, !tbaa !29
  %242 = getelementptr inbounds nuw %struct._N_VectorContent_Serial, ptr %241, i32 0, i32 2
  %243 = load ptr, ptr %242, align 8, !tbaa !32
  %244 = getelementptr inbounds double, ptr %243, i64 5
  store double %238, ptr %244, align 8, !tbaa !24
  call void @llvm.lifetime.end.p0(i64 8, ptr %27) #6
  call void @llvm.lifetime.end.p0(i64 8, ptr %26) #6
  call void @llvm.lifetime.end.p0(i64 8, ptr %25) #6
  call void @llvm.lifetime.end.p0(i64 8, ptr %24) #6
  call void @llvm.lifetime.end.p0(i64 8, ptr %23) #6
  call void @llvm.lifetime.end.p0(i64 8, ptr %22) #6
  call void @llvm.lifetime.end.p0(i64 8, ptr %21) #6
  call void @llvm.lifetime.end.p0(i64 8, ptr %20) #6
  call void @llvm.lifetime.end.p0(i64 8, ptr %19) #6
  call void @llvm.lifetime.end.p0(i64 8, ptr %18) #6
  call void @llvm.lifetime.end.p0(i64 8, ptr %17) #6
  call void @llvm.lifetime.end.p0(i64 8, ptr %16) #6
  call void @llvm.lifetime.end.p0(i64 8, ptr %15) #6
  call void @llvm.lifetime.end.p0(i64 8, ptr %14) #6
  call void @llvm.lifetime.end.p0(i64 8, ptr %13) #6
  ret i32 0
}