; Function Attrs: mustprogress nofree norecurse nosync nounwind willreturn memory(readwrite, inaccessiblemem: none) uwtable
define internal noundef i32 @fB2(double %0, ptr noundef readonly captures(none) %1, ptr noundef readonly captures(none) %2, ptr noundef readonly captures(none) %3, ptr noundef readonly captures(none) %4, ptr noundef readonly captures(none) %5) #4 {
  %7 = load double, ptr %5, align 8, !tbaa !8
  %8 = getelementptr inbounds nuw i8, ptr %5, i64 8
  %9 = load double, ptr %8, align 8, !tbaa !11
  %10 = load ptr, ptr %1, align 8, !tbaa !18
  %11 = getelementptr inbounds nuw i8, ptr %10, i64 16
  %12 = load ptr, ptr %11, align 8, !tbaa !21
  %13 = load double, ptr %12, align 8, !tbaa !26
  %14 = getelementptr inbounds nuw i8, ptr %12, i64 8
  %15 = load double, ptr %14, align 8, !tbaa !26
  %16 = getelementptr inbounds nuw i8, ptr %12, i64 16
  %17 = load double, ptr %16, align 8, !tbaa !26
  %18 = getelementptr inbounds nuw i8, ptr %2, i64 8
  %19 = load ptr, ptr %18, align 8, !tbaa !16
  %20 = load ptr, ptr %19, align 8, !tbaa !18
  %21 = getelementptr inbounds nuw i8, ptr %20, i64 16
  %22 = load ptr, ptr %21, align 8, !tbaa !21
  %23 = load double, ptr %22, align 8, !tbaa !26
  %24 = getelementptr inbounds nuw i8, ptr %22, i64 8
  %25 = load double, ptr %24, align 8, !tbaa !26
  %26 = getelementptr inbounds nuw i8, ptr %22, i64 16
  %27 = load double, ptr %26, align 8, !tbaa !26
  %28 = load ptr, ptr %3, align 8, !tbaa !18
  %29 = getelementptr inbounds nuw i8, ptr %28, i64 16
  %30 = load ptr, ptr %29, align 8, !tbaa !21
  %31 = load double, ptr %30, align 8, !tbaa !26
  %32 = getelementptr inbounds nuw i8, ptr %30, i64 8
  %33 = load double, ptr %32, align 8, !tbaa !26
  %34 = getelementptr inbounds nuw i8, ptr %30, i64 16
  %35 = load double, ptr %34, align 8, !tbaa !26
  %36 = getelementptr inbounds nuw i8, ptr %30, i64 24
  %37 = load double, ptr %36, align 8, !tbaa !26
  %38 = getelementptr inbounds nuw i8, ptr %30, i64 32
  %39 = load double, ptr %38, align 8, !tbaa !26
  %40 = getelementptr inbounds nuw i8, ptr %30, i64 40
  %41 = load double, ptr %40, align 8, !tbaa !26
  %42 = fmul double %7, 2.000000e+00
  %43 = fmul double %42, %13
  %44 = fneg double %13
  %45 = tail call double @llvm.fmuladd.f64(double %43, double %31, double %44)
  %46 = load ptr, ptr %4, align 8, !tbaa !18
  %47 = getelementptr inbounds nuw i8, ptr %46, i64 16
  %48 = load ptr, ptr %47, align 8, !tbaa !21
  store double %45, ptr %48, align 8, !tbaa !26
  %49 = fmul double %9, %9
  %50 = fmul double %49, %17
  %51 = tail call double @llvm.fmuladd.f64(double %50, double %35, double %33)
  %52 = fsub double %51, %15
  %53 = getelementptr inbounds nuw i8, ptr %48, i64 8
  store double %52, ptr %53, align 8, !tbaa !26
  %54 = fmul double %49, %15
  %55 = tail call double @llvm.fmuladd.f64(double %54, double %35, double %31)
  %56 = fsub double %55, %17
  %57 = getelementptr inbounds nuw i8, ptr %48, i64 16
  store double %56, ptr %57, align 8, !tbaa !26
  %58 = fmul double %31, 2.000000e+00
  %59 = fmul double %7, %58
  %60 = fmul double %23, %59
  %61 = tail call double @llvm.fmuladd.f64(double %43, double %37, double %60)
  %62 = fsub double %61, %23
  %63 = getelementptr inbounds nuw i8, ptr %48, i64 24
  store double %62, ptr %63, align 8, !tbaa !26
  %64 = tail call double @llvm.fmuladd.f64(double %50, double %41, double %39)
  %65 = fmul double %9, 2.000000e+00
  %66 = fmul double %49, %27
  %67 = tail call double @llvm.fmuladd.f64(double %65, double %17, double %66)
  %68 = tail call double @llvm.fmuladd.f64(double %35, double %67, double %64)
  %69 = fsub double %68, %25
  %70 = getelementptr inbounds nuw i8, ptr %48, i64 32
  store double %69, ptr %70, align 8, !tbaa !26
  %71 = tail call double @llvm.fmuladd.f64(double %54, double %41, double %37)
  %72 = fmul double %49, %25
  %73 = tail call double @llvm.fmuladd.f64(double %65, double %15, double %72)
  %74 = tail call double @llvm.fmuladd.f64(double %35, double %73, double %71)
  %75 = fsub double %74, %27
  %76 = getelementptr inbounds nuw i8, ptr %48, i64 40
  store double %75, ptr %76, align 8, !tbaa !26
  ret i32 0
}